; Function Attrs: nounwind uwtable
define internal void @w_decref_entry(ptr noundef %0) #0 {
  %.not.i = icmp eq ptr %0, null
  br i1 %.not.i, label %Py_XDECREF.exit, label %2

2:                                                ; preds = %1
  %3 = load i32, ptr %0, align 8, !tbaa !25
  %.not.i.i = icmp sgt i32 %3, -1
  br i1 %.not.i.i, label %4, label %Py_XDECREF.exit

4:                                                ; preds = %2
  %5 = add nsw i32 %3, -1
  store i32 %5, ptr %0, align 8, !tbaa !25
  %6 = icmp eq i32 %5, 0
  br i1 %6, label %7, label %Py_XDECREF.exit

7:                                                ; preds = %4
  tail call void @_Py_Dealloc(ptr noundef nonnull %0) #11
  br label %Py_XDECREF.exit

Py_XDECREF.exit:                                  ; preds = %1, %2, %4, %7
  ret void
}